; Function Attrs: nounwind uwtable
define dso_local noalias ptr @XML_MemMalloc(ptr noundef readonly %0, i64 noundef %1) local_unnamed_addr #0 {
  %3 = icmp eq ptr %0, null
  br i1 %3, label %8, label %4

4:                                                ; preds = %2
  %5 = getelementptr inbounds nuw i8, ptr %0, i64 24
  %6 = load ptr, ptr %5, align 8, !tbaa !35
  %7 = tail call ptr %6(i64 noundef %1) #23
  br label %8

8:                                                ; preds = %2, %4
  %.0 = phi ptr [ %7, %4 ], [ null, %2 ]
  ret ptr %.0
}